target datalayout = "e-m:e-p270:32:32-p271:32:32-p272:64:64-i64:64-i128:128-f80:128-n8:16:32:64-S128"
target triple = "x86_64-pc-linux-gnu"

%struct.AVChannelLayout = type { i32, i32, %union.anon.1, ptr }
%union.anon.1 = type { i64 }
%struct.AVRational = type { i32, i32 }
%struct.FillBordersContext = type { ptr, i32, i32, i32, i32, i32, i32, i32, [4 x %struct.Borders], [4 x i32], [4 x i32], [4 x i8], [4 x i8], [4 x i8], ptr }
%struct.Borders = type { i32, i32, i32, i32 }
%struct.AVFrame = type { [8 x ptr], [8 x i32], ptr, i32, i32, i32, i32, i32, %struct.AVRational, i64, i64, %struct.AVRational, i32, ptr, i32, i32, [8 x ptr], ptr, i32, ptr, i32, i32, i32, i32, i32, i32, i32, i64, ptr, i32, ptr, ptr, i64, i64, i64, i64, ptr, %struct.AVChannelLayout, i64 }

; Function Attrs: nounwind uwtable
define internal void @wrap_borders16(ptr noundef %0, ptr noundef %1) #0 {
  %3 = alloca ptr, align 8
  %4 = alloca ptr, align 8
  %5 = alloca i32, align 4
  %6 = alloca i32, align 4
  %7 = alloca i32, align 4
  %8 = alloca ptr, align 8
  %9 = alloca i64, align 8
  store ptr %0, ptr %3, align 8, !tbaa !37
  store ptr %1, ptr %4, align 8, !tbaa !26
  call void @llvm.lifetime.start.p0(i64 4, ptr %5) #8
  call void @llvm.lifetime.start.p0(i64 4, ptr %6) #8
  call void @llvm.lifetime.start.p0(i64 4, ptr %7) #8
  store i32 0, ptr %5, align 4, !tbaa !11
  br label %10

10:                                               ; preds = %296, %2
  %11 = load i32, ptr %5, align 4, !tbaa !11
  %12 = load ptr, ptr %3, align 8, !tbaa !37
  %13 = getelementptr inbounds nuw %struct.FillBordersContext, ptr %12, i32 0, i32 6
  %14 = load i32, ptr %13, align 4, !tbaa !48
  %15 = icmp slt i32 %11, %14
  br i1 %15, label %16, label %299

16:                                               ; preds = %10
  call void @llvm.lifetime.start.p0(i64 8, ptr %8) #8
  %17 = load ptr, ptr %4, align 8, !tbaa !26
  %18 = getelementptr inbounds nuw %struct.AVFrame, ptr %17, i32 0, i32 0
  %19 = load i32, ptr %5, align 4, !tbaa !11
  %20 = sext i32 %19 to i64
  %21 = getelementptr inbounds [8 x ptr], ptr %18, i64 0, i64 %20
  %22 = load ptr, ptr %21, align 8, !tbaa !9
  store ptr %22, ptr %8, align 8, !tbaa !75
  call void @llvm.lifetime.start.p0(i64 8, ptr %9) #8
  %23 = load ptr, ptr %4, align 8, !tbaa !26
  %24 = getelementptr inbounds nuw %struct.AVFrame, ptr %23, i32 0, i32 1
  %25 = load i32, ptr %5, align 4, !tbaa !11
  %26 = sext i32 %25 to i64
  %27 = getelementptr inbounds [8 x i32], ptr %24, i64 0, i64 %26
  %28 = load i32, ptr %27, align 4, !tbaa !11
  %29 = sdiv i32 %28, 2
  %30 = sext i32 %29 to i64
  store i64 %30, ptr %9, align 8, !tbaa !70
  %31 = load ptr, ptr %3, align 8, !tbaa !37
  %32 = getelementptr inbounds nuw %struct.FillBordersContext, ptr %31, i32 0, i32 8
  %33 = load i32, ptr %5, align 4, !tbaa !11
  %34 = sext i32 %33 to i64
  %35 = getelementptr inbounds [4 x %struct.Borders], ptr %32, i64 0, i64 %34
  %36 = getelementptr inbounds nuw %struct.Borders, ptr %35, i32 0, i32 2
  %37 = load i32, ptr %36, align 4, !tbaa !63
  store i32 %37, ptr %6, align 4, !tbaa !11
  br label %38

38:                                               ; preds = %176, %16
  %39 = load i32, ptr %6, align 4, !tbaa !11
  %40 = load ptr, ptr %3, align 8, !tbaa !37
  %41 = getelementptr inbounds nuw %struct.FillBordersContext, ptr %40, i32 0, i32 10
  %42 = load i32, ptr %5, align 4, !tbaa !11
  %43 = sext i32 %42 to i64
  %44 = getelementptr inbounds [4 x i32], ptr %41, i64 0, i64 %43
  %45 = load i32, ptr %44, align 4, !tbaa !11
  %46 = load ptr, ptr %3, align 8, !tbaa !37
  %47 = getelementptr inbounds nuw %struct.FillBordersContext, ptr %46, i32 0, i32 8
  %48 = load i32, ptr %5, align 4, !tbaa !11
  %49 = sext i32 %48 to i64
  %50 = getelementptr inbounds [4 x %struct.Borders], ptr %47, i64 0, i64 %49
  %51 = getelementptr inbounds nuw %struct.Borders, ptr %50, i32 0, i32 3
  %52 = load i32, ptr %51, align 4, !tbaa !64
  %53 = sub nsw i32 %45, %52
  %54 = icmp slt i32 %39, %53
  br i1 %54, label %55, label %179

55:                                               ; preds = %38
  store i32 0, ptr %7, align 4, !tbaa !11
  br label %56

56:                                               ; preds = %112, %55
  %57 = load i32, ptr %7, align 4, !tbaa !11
  %58 = load ptr, ptr %3, align 8, !tbaa !37
  %59 = getelementptr inbounds nuw %struct.FillBordersContext, ptr %58, i32 0, i32 8
  %60 = load i32, ptr %5, align 4, !tbaa !11
  %61 = sext i32 %60 to i64
  %62 = getelementptr inbounds [4 x %struct.Borders], ptr %59, i64 0, i64 %61
  %63 = getelementptr inbounds nuw %struct.Borders, ptr %62, i32 0, i32 0
  %64 = load i32, ptr %63, align 4, !tbaa !60
  %65 = icmp slt i32 %57, %64
  br i1 %65, label %66, label %115

66:                                               ; preds = %56
  %67 = load ptr, ptr %8, align 8, !tbaa !75
  %68 = load i32, ptr %6, align 4, !tbaa !11
  %69 = sext i32 %68 to i64
  %70 = load i64, ptr %9, align 8, !tbaa !70
  %71 = mul nsw i64 %69, %70
  %72 = load ptr, ptr %3, align 8, !tbaa !37
  %73 = getelementptr inbounds nuw %struct.FillBordersContext, ptr %72, i32 0, i32 9
  %74 = load i32, ptr %5, align 4, !tbaa !11
  %75 = sext i32 %74 to i64
  %76 = getelementptr inbounds [4 x i32], ptr %73, i64 0, i64 %75
  %77 = load i32, ptr %76, align 4, !tbaa !11
  %78 = sext i32 %77 to i64
  %79 = add nsw i64 %71, %78
  %80 = load ptr, ptr %3, align 8, !tbaa !37
  %81 = getelementptr inbounds nuw %struct.FillBordersContext, ptr %80, i32 0, i32 8
  %82 = load i32, ptr %5, align 4, !tbaa !11
  %83 = sext i32 %82 to i64
  %84 = getelementptr inbounds [4 x %struct.Borders], ptr %81, i64 0, i64 %83
  %85 = getelementptr inbounds nuw %struct.Borders, ptr %84, i32 0, i32 1
  %86 = load i32, ptr %85, align 4, !tbaa !62
  %87 = sext i32 %86 to i64
  %88 = sub nsw i64 %79, %87
  %89 = load ptr, ptr %3, align 8, !tbaa !37
  %90 = getelementptr inbounds nuw %struct.FillBordersContext, ptr %89, i32 0, i32 8
  %91 = load i32, ptr %5, align 4, !tbaa !11
  %92 = sext i32 %91 to i64
  %93 = getelementptr inbounds [4 x %struct.Borders], ptr %90, i64 0, i64 %92
  %94 = getelementptr inbounds nuw %struct.Borders, ptr %93, i32 0, i32 0
  %95 = load i32, ptr %94, align 4, !tbaa !60
  %96 = sext i32 %95 to i64
  %97 = sub nsw i64 %88, %96
  %98 = load i32, ptr %7, align 4, !tbaa !11
  %99 = sext i32 %98 to i64
  %100 = add nsw i64 %97, %99
  %101 = getelementptr inbounds i16, ptr %67, i64 %100
  %102 = load i16, ptr %101, align 2, !tbaa !77
  %103 = load ptr, ptr %8, align 8, !tbaa !75
  %104 = load i32, ptr %6, align 4, !tbaa !11
  %105 = sext i32 %104 to i64
  %106 = load i64, ptr %9, align 8, !tbaa !70
  %107 = mul nsw i64 %105, %106
  %108 = load i32, ptr %7, align 4, !tbaa !11
  %109 = sext i32 %108 to i64
  %110 = add nsw i64 %107, %109
  %111 = getelementptr inbounds i16, ptr %103, i64 %110
  store i16 %102, ptr %111, align 2, !tbaa !77
  br label %112

112:                                              ; preds = %66
  %113 = load i32, ptr %7, align 4, !tbaa !11
  %114 = add nsw i32 %113, 1
  store i32 %114, ptr %7, align 4, !tbaa !11
  br label %56, !llvm.loop !127

115:                                              ; preds = %56
  store i32 0, ptr %7, align 4, !tbaa !11
  br label %116

116:                                              ; preds = %172, %115
  %117 = load i32, ptr %7, align 4, !tbaa !11
  %118 = load ptr, ptr %3, align 8, !tbaa !37
  %119 = getelementptr inbounds nuw %struct.FillBordersContext, ptr %118, i32 0, i32 8
  %120 = load i32, ptr %5, align 4, !tbaa !11
  %121 = sext i32 %120 to i64
  %122 = getelementptr inbounds [4 x %struct.Borders], ptr %119, i64 0, i64 %121
  %123 = getelementptr inbounds nuw %struct.Borders, ptr %122, i32 0, i32 1
  %124 = load i32, ptr %123, align 4, !tbaa !62
  %125 = icmp slt i32 %117, %124
  br i1 %125, label %126, label %175

126:                                              ; preds = %116
  %127 = load ptr, ptr %8, align 8, !tbaa !75
  %128 = load i32, ptr %6, align 4, !tbaa !11
  %129 = sext i32 %128 to i64
  %130 = load i64, ptr %9, align 8, !tbaa !70
  %131 = mul nsw i64 %129, %130
  %132 = load ptr, ptr %3, align 8, !tbaa !37
  %133 = getelementptr inbounds nuw %struct.FillBordersContext, ptr %132, i32 0, i32 8
  %134 = load i32, ptr %5, align 4, !tbaa !11
  %135 = sext i32 %134 to i64
  %136 = getelementptr inbounds [4 x %struct.Borders], ptr %133, i64 0, i64 %135
  %137 = getelementptr inbounds nuw %struct.Borders, ptr %136, i32 0, i32 0
  %138 = load i32, ptr %137, align 4, !tbaa !60
  %139 = sext i32 %138 to i64
  %140 = add nsw i64 %131, %139
  %141 = load i32, ptr %7, align 4, !tbaa !11
  %142 = sext i32 %141 to i64
  %143 = add nsw i64 %140, %142
  %144 = getelementptr inbounds i16, ptr %127, i64 %143
  %145 = load i16, ptr %144, align 2, !tbaa !77
  %146 = load ptr, ptr %8, align 8, !tbaa !75
  %147 = load i32, ptr %6, align 4, !tbaa !11
  %148 = sext i32 %147 to i64
  %149 = load i64, ptr %9, align 8, !tbaa !70
  %150 = mul nsw i64 %148, %149
  %151 = load ptr, ptr %3, align 8, !tbaa !37
  %152 = getelementptr inbounds nuw %struct.FillBordersContext, ptr %151, i32 0, i32 9
  %153 = load i32, ptr %5, align 4, !tbaa !11
  %154 = sext i32 %153 to i64
  %155 = getelementptr inbounds [4 x i32], ptr %152, i64 0, i64 %154
  %156 = load i32, ptr %155, align 4, !tbaa !11
  %157 = sext i32 %156 to i64
  %158 = add nsw i64 %150, %157
  %159 = load ptr, ptr %3, align 8, !tbaa !37
  %160 = getelementptr inbounds nuw %struct.FillBordersContext, ptr %159, i32 0, i32 8
  %161 = load i32, ptr %5, align 4, !tbaa !11
  %162 = sext i32 %161 to i64
  %163 = getelementptr inbounds [4 x %struct.Borders], ptr %160, i64 0, i64 %162
  %164 = getelementptr inbounds nuw %struct.Borders, ptr %163, i32 0, i32 1
  %165 = load i32, ptr %164, align 4, !tbaa !62
  %166 = sext i32 %165 to i64
  %167 = sub nsw i64 %158, %166
  %168 = load i32, ptr %7, align 4, !tbaa !11
  %169 = sext i32 %168 to i64
  %170 = add nsw i64 %167, %169
  %171 = getelementptr inbounds i16, ptr %146, i64 %170
  store i16 %145, ptr %171, align 2, !tbaa !77
  br label %172

172:                                              ; preds = %126
  %173 = load i32, ptr %7, align 4, !tbaa !11
  %174 = add nsw i32 %173, 1
  store i32 %174, ptr %7, align 4, !tbaa !11
  br label %116, !llvm.loop !128

175:                                              ; preds = %116
  br label %176

176:                                              ; preds = %175
  %177 = load i32, ptr %6, align 4, !tbaa !11
  %178 = add nsw i32 %177, 1
  store i32 %178, ptr %6, align 4, !tbaa !11
  br label %38, !llvm.loop !129

179:                                              ; preds = %38
  store i32 0, ptr %6, align 4, !tbaa !11
  br label %180

180:                                              ; preds = %234, %179
  %181 = load i32, ptr %6, align 4, !tbaa !11
  %182 = load ptr, ptr %3, align 8, !tbaa !37
  %183 = getelementptr inbounds nuw %struct.FillBordersContext, ptr %182, i32 0, i32 8
  %184 = load i32, ptr %5, align 4, !tbaa !11
  %185 = sext i32 %184 to i64
  %186 = getelementptr inbounds [4 x %struct.Borders], ptr %183, i64 0, i64 %185
  %187 = getelementptr inbounds nuw %struct.Borders, ptr %186, i32 0, i32 2
  %188 = load i32, ptr %187, align 4, !tbaa !63
  %189 = icmp slt i32 %181, %188
  br i1 %189, label %190, label %237

190:                                              ; preds = %180
  %191 = load ptr, ptr %8, align 8, !tbaa !75
  %192 = load i32, ptr %6, align 4, !tbaa !11
  %193 = sext i32 %192 to i64
  %194 = load i64, ptr %9, align 8, !tbaa !70
  %195 = mul nsw i64 %193, %194
  %196 = getelementptr inbounds i16, ptr %191, i64 %195
  %197 = load ptr, ptr %8, align 8, !tbaa !75
  %198 = load ptr, ptr %3, align 8, !tbaa !37
  %199 = getelementptr inbounds nuw %struct.FillBordersContext, ptr %198, i32 0, i32 10
  %200 = load i32, ptr %5, align 4, !tbaa !11
  %201 = sext i32 %200 to i64
  %202 = getelementptr inbounds [4 x i32], ptr %199, i64 0, i64 %201
  %203 = load i32, ptr %202, align 4, !tbaa !11
  %204 = load ptr, ptr %3, align 8, !tbaa !37
  %205 = getelementptr inbounds nuw %struct.FillBordersContext, ptr %204, i32 0, i32 8
  %206 = load i32, ptr %5, align 4, !tbaa !11
  %207 = sext i32 %206 to i64
  %208 = getelementptr inbounds [4 x %struct.Borders], ptr %205, i64 0, i64 %207
  %209 = getelementptr inbounds nuw %struct.Borders, ptr %208, i32 0, i32 3
  %210 = load i32, ptr %209, align 4, !tbaa !64
  %211 = sub nsw i32 %203, %210
  %212 = load ptr, ptr %3, align 8, !tbaa !37
  %213 = getelementptr inbounds nuw %struct.FillBordersContext, ptr %212, i32 0, i32 8
  %214 = load i32, ptr %5, align 4, !tbaa !11
  %215 = sext i32 %214 to i64
  %216 = getelementptr inbounds [4 x %struct.Borders], ptr %213, i64 0, i64 %215
  %217 = getelementptr inbounds nuw %struct.Borders, ptr %216, i32 0, i32 2
  %218 = load i32, ptr %217, align 4, !tbaa !63
  %219 = sub nsw i32 %211, %218
  %220 = load i32, ptr %6, align 4, !tbaa !11
  %221 = add nsw i32 %219, %220
  %222 = sext i32 %221 to i64
  %223 = load i64, ptr %9, align 8, !tbaa !70
  %224 = mul nsw i64 %222, %223
  %225 = getelementptr inbounds i16, ptr %197, i64 %224
  %226 = load ptr, ptr %3, align 8, !tbaa !37
  %227 = getelementptr inbounds nuw %struct.FillBordersContext, ptr %226, i32 0, i32 9
  %228 = load i32, ptr %5, align 4, !tbaa !11
  %229 = sext i32 %228 to i64
  %230 = getelementptr inbounds [4 x i32], ptr %227, i64 0, i64 %229
  %231 = load i32, ptr %230, align 4, !tbaa !11
  %232 = mul nsw i32 %231, 2
  %233 = sext i32 %232 to i64
  call void @llvm.memcpy.p0.p0.i64(ptr align 2 %196, ptr align 2 %225, i64 %233, i1 false)
  br label %234

234:                                              ; preds = %190
  %235 = load i32, ptr %6, align 4, !tbaa !11
  %236 = add nsw i32 %235, 1
  store i32 %236, ptr %6, align 4, !tbaa !11
  br label %180, !llvm.loop !130

237:                                              ; preds = %180
  store i32 0, ptr %6, align 4, !tbaa !11
  br label %238

238:                                              ; preds = %292, %237
  %239 = load i32, ptr %6, align 4, !tbaa !11
  %240 = load ptr, ptr %3, align 8, !tbaa !37
  %241 = getelementptr inbounds nuw %struct.FillBordersContext, ptr %240, i32 0, i32 8
  %242 = load i32, ptr %5, align 4, !tbaa !11
  %243 = sext i32 %242 to i64
  %244 = getelementptr inbounds [4 x %struct.Borders], ptr %241, i64 0, i64 %243
  %245 = getelementptr inbounds nuw %struct.Borders, ptr %244, i32 0, i32 3
  %246 = load i32, ptr %245, align 4, !tbaa !64
  %247 = icmp slt i32 %239, %246
  br i1 %247, label %248, label %295

248:                                              ; preds = %238
  %249 = load ptr, ptr %8, align 8, !tbaa !75
  %250 = load ptr, ptr %3, align 8, !tbaa !37
  %251 = getelementptr inbounds nuw %struct.FillBordersContext, ptr %250, i32 0, i32 10
  %252 = load i32, ptr %5, align 4, !tbaa !11
  %253 = sext i32 %252 to i64
  %254 = getelementptr inbounds [4 x i32], ptr %251, i64 0, i64 %253
  %255 = load i32, ptr %254, align 4, !tbaa !11
  %256 = load ptr, ptr %3, align 8, !tbaa !37
  %257 = getelementptr inbounds nuw %struct.FillBordersContext, ptr %256, i32 0, i32 8
  %258 = load i32, ptr %5, align 4, !tbaa !11
  %259 = sext i32 %258 to i64
  %260 = getelementptr inbounds [4 x %struct.Borders], ptr %257, i64 0, i64 %259
  %261 = getelementptr inbounds nuw %struct.Borders, ptr %260, i32 0, i32 3
  %262 = load i32, ptr %261, align 4, !tbaa !64
  %263 = sub nsw i32 %255, %262
  %264 = load i32, ptr %6, align 4, !tbaa !11
  %265 = add nsw i32 %263, %264
  %266 = sext i32 %265 to i64
  %267 = load i64, ptr %9, align 8, !tbaa !70
  %268 = mul nsw i64 %266, %267
  %269 = getelementptr inbounds i16, ptr %249, i64 %268
  %270 = load ptr, ptr %8, align 8, !tbaa !75
  %271 = load ptr, ptr %3, align 8, !tbaa !37
  %272 = getelementptr inbounds nuw %struct.FillBordersContext, ptr %271, i32 0, i32 8
  %273 = load i32, ptr %5, align 4, !tbaa !11
  %274 = sext i32 %273 to i64
  %275 = getelementptr inbounds [4 x %struct.Borders], ptr %272, i64 0, i64 %274
  %276 = getelementptr inbounds nuw %struct.Borders, ptr %275, i32 0, i32 2
  %277 = load i32, ptr %276, align 4, !tbaa !63
  %278 = load i32, ptr %6, align 4, !tbaa !11
  %279 = add nsw i32 %277, %278
  %280 = sext i32 %279 to i64
  %281 = load i64, ptr %9, align 8, !tbaa !70
  %282 = mul nsw i64 %280, %281
  %283 = getelementptr inbounds i16, ptr %270, i64 %282
  %284 = load ptr, ptr %3, align 8, !tbaa !37
  %285 = getelementptr inbounds nuw %struct.FillBordersContext, ptr %284, i32 0, i32 9
  %286 = load i32, ptr %5, align 4, !tbaa !11
  %287 = sext i32 %286 to i64
  %288 = getelementptr inbounds [4 x i32], ptr %285, i64 0, i64 %287
  %289 = load i32, ptr %288, align 4, !tbaa !11
  %290 = mul nsw i32 %289, 2
  %291 = sext i32 %290 to i64
  call void @llvm.memcpy.p0.p0.i64(ptr align 2 %269, ptr align 2 %283, i64 %291, i1 false)
  br label %292

292:                                              ; preds = %248
  %293 = load i32, ptr %6, align 4, !tbaa !11
  %294 = add nsw i32 %293, 1
  store i32 %294, ptr %6, align 4, !tbaa !11
  br label %238, !llvm.loop !131

295:                                              ; preds = %238
  call void @llvm.lifetime.end.p0(i64 8, ptr %9) #8
  call void @llvm.lifetime.end.p0(i64 8, ptr %8) #8
  br label %296

296:                                              ; preds = %295
  %297 = load i32, ptr %5, align 4, !tbaa !11
  %298 = add nsw i32 %297, 1
  store i32 %298, ptr %5, align 4, !tbaa !11
  br label %10, !llvm.loop !132

299:                                              ; preds = %10
  call void @llvm.lifetime.end.p0(i64 4, ptr %7) #8
  call void @llvm.lifetime.end.p0(i64 4, ptr %6) #8
  call void @llvm.lifetime.end.p0(i64 4, ptr %5) #8
  ret void
}