; Function Attrs: nofree norecurse nosync nounwind memory(readwrite, inaccessiblemem: none) uwtable
define internal void @wrap_borders16(ptr noundef readonly captures(none) %0, ptr noundef readonly captures(none) %1) #3 {
  %3 = getelementptr inbounds nuw i8, ptr %0, i64 28
  %4 = load i32, ptr %3, align 4, !tbaa !39
  %5 = icmp sgt i32 %4, 0
  br i1 %5, label %.lr.ph116, label %._crit_edge117

.lr.ph116:                                        ; preds = %2
  %6 = getelementptr inbounds nuw i8, ptr %1, i64 64
  %7 = getelementptr inbounds nuw i8, ptr %0, i64 36
  %8 = getelementptr inbounds nuw i8, ptr %0, i64 116
  %9 = getelementptr inbounds nuw i8, ptr %0, i64 100
  br label %10

10:                                               ; preds = %.lr.ph116, %._crit_edge113
  %indvars.iv130 = phi i64 [ 0, %.lr.ph116 ], [ %indvars.iv.next131, %._crit_edge113 ]
  %11 = getelementptr inbounds nuw [8 x ptr], ptr %1, i64 0, i64 %indvars.iv130
  %12 = load ptr, ptr %11, align 8, !tbaa !62
  %13 = getelementptr inbounds nuw [8 x i32], ptr %6, i64 0, i64 %indvars.iv130
  %14 = load i32, ptr %13, align 4, !tbaa !45
  %15 = sdiv i32 %14, 2
  %16 = sext i32 %15 to i64
  %17 = getelementptr inbounds nuw [4 x %struct.Borders], ptr %7, i64 0, i64 %indvars.iv130
  %18 = getelementptr inbounds nuw i8, ptr %17, i64 8
  %19 = load i32, ptr %18, align 4, !tbaa !55
  %20 = getelementptr inbounds nuw [4 x i32], ptr %8, i64 0, i64 %indvars.iv130
  %21 = load i32, ptr %20, align 4, !tbaa !45
  %22 = getelementptr inbounds nuw i8, ptr %17, i64 12
  %23 = load i32, ptr %22, align 4, !tbaa !56
  %24 = sub nsw i32 %21, %23
  %25 = icmp slt i32 %19, %24
  br i1 %25, label %.preheader100.lr.ph, label %.preheader102

.preheader100.lr.ph:                              ; preds = %10
  %26 = load i32, ptr %17, align 4, !tbaa !52
  %27 = icmp sgt i32 %26, 0
  %28 = getelementptr inbounds nuw [4 x i32], ptr %9, i64 0, i64 %indvars.iv130
  %29 = getelementptr inbounds nuw i8, ptr %17, i64 4
  %30 = sext i32 %26 to i64
  %31 = load i32, ptr %29, align 4, !tbaa !54
  %32 = icmp sgt i32 %31, 0
  %invariant.gep = getelementptr i16, ptr %12, i64 %30
  %33 = sext i32 %31 to i64
  %34 = sext i32 %19 to i64
  %35 = sext i32 %24 to i64
  %36 = add nsw i64 %30, %33
  %wide.trip.count = zext nneg i32 %26 to i64
  %wide.trip.count122 = zext nneg i32 %31 to i64
  br label %.preheader100

.preheader102:                                    ; preds = %._crit_edge, %10
  %37 = icmp sgt i32 %19, 0
  br i1 %37, label %.lr.ph110, label %.preheader101

.lr.ph110:                                        ; preds = %.preheader102
  %38 = getelementptr inbounds nuw [4 x i32], ptr %9, i64 0, i64 %indvars.iv130
  br label %64

.preheader100:                                    ; preds = %.preheader100.lr.ph, %._crit_edge
  %indvars.iv124 = phi i64 [ %34, %.preheader100.lr.ph ], [ %indvars.iv.next125, %._crit_edge ]
  br i1 %27, label %.lr.ph, label %.preheader

.lr.ph:                                           ; preds = %.preheader100
  %39 = mul nsw i64 %indvars.iv124, %16
  %40 = load i32, ptr %28, align 4, !tbaa !45
  %41 = sext i32 %40 to i64
  %42 = add nsw i64 %39, %41
  %43 = sub i64 %42, %36
  %44 = getelementptr i16, ptr %12, i64 %43
  %45 = getelementptr i16, ptr %12, i64 %39
  br label %52

.preheader:                                       ; preds = %52, %.preheader100
  br i1 %32, label %.lr.ph107, label %._crit_edge

.lr.ph107:                                        ; preds = %.preheader
  %46 = mul nsw i64 %indvars.iv124, %16
  %gep = getelementptr i16, ptr %invariant.gep, i64 %46
  %47 = load i32, ptr %28, align 4, !tbaa !45
  %48 = sext i32 %47 to i64
  %49 = sub nsw i64 %46, %33
  %50 = getelementptr i16, ptr %12, i64 %49
  %51 = getelementptr i16, ptr %50, i64 %48
  br label %56

52:                                               ; preds = %.lr.ph, %52
  %indvars.iv = phi i64 [ 0, %.lr.ph ], [ %indvars.iv.next, %52 ]
  %53 = getelementptr i16, ptr %44, i64 %indvars.iv
  %54 = load i16, ptr %53, align 2, !tbaa !67
  %55 = getelementptr i16, ptr %45, i64 %indvars.iv
  store i16 %54, ptr %55, align 2, !tbaa !67
  %indvars.iv.next = add nuw nsw i64 %indvars.iv, 1
  %exitcond.not = icmp eq i64 %indvars.iv.next, %wide.trip.count
  br i1 %exitcond.not, label %.preheader, label %52, !llvm.loop !117

56:                                               ; preds = %.lr.ph107, %56
  %indvars.iv119 = phi i64 [ 0, %.lr.ph107 ], [ %indvars.iv.next120, %56 ]
  %57 = getelementptr i16, ptr %gep, i64 %indvars.iv119
  %58 = load i16, ptr %57, align 2, !tbaa !67
  %59 = getelementptr i16, ptr %51, i64 %indvars.iv119
  store i16 %58, ptr %59, align 2, !tbaa !67
  %indvars.iv.next120 = add nuw nsw i64 %indvars.iv119, 1
  %exitcond123.not = icmp eq i64 %indvars.iv.next120, %wide.trip.count122
  br i1 %exitcond123.not, label %._crit_edge, label %56, !llvm.loop !118

._crit_edge:                                      ; preds = %56, %.preheader
  %indvars.iv.next125 = add nsw i64 %indvars.iv124, 1
  %60 = icmp slt i64 %indvars.iv.next125, %35
  br i1 %60, label %.preheader100, label %.preheader102, !llvm.loop !119

.preheader101.loopexit:                           ; preds = %64
  %.pre = load i32, ptr %22, align 4, !tbaa !56
  br label %.preheader101

.preheader101:                                    ; preds = %.preheader101.loopexit, %.preheader102
  %61 = phi i32 [ %.pre, %.preheader101.loopexit ], [ %23, %.preheader102 ]
  %62 = icmp sgt i32 %61, 0
  br i1 %62, label %.lr.ph112, label %._crit_edge113

.lr.ph112:                                        ; preds = %.preheader101
  %63 = getelementptr inbounds nuw [4 x i32], ptr %9, i64 0, i64 %indvars.iv130
  br label %83

64:                                               ; preds = %.lr.ph110, %64
  %indvars.iv127 = phi i64 [ 0, %.lr.ph110 ], [ %indvars.iv.next128, %64 ]
  %65 = phi i32 [ %19, %.lr.ph110 ], [ %80, %64 ]
  %66 = mul nsw i64 %indvars.iv127, %16
  %67 = getelementptr inbounds i16, ptr %12, i64 %66
  %68 = load i32, ptr %20, align 4, !tbaa !45
  %69 = load i32, ptr %22, align 4, !tbaa !56
  %70 = trunc nuw nsw i64 %indvars.iv127 to i32
  %71 = add i32 %68, %70
  %72 = add i32 %65, %69
  %73 = sub i32 %71, %72
  %74 = sext i32 %73 to i64
  %75 = mul nsw i64 %74, %16
  %76 = getelementptr inbounds i16, ptr %12, i64 %75
  %77 = load i32, ptr %38, align 4, !tbaa !45
  %78 = shl nsw i32 %77, 1
  %79 = sext i32 %78 to i64
  tail call void @llvm.memcpy.p0.p0.i64(ptr align 2 %67, ptr align 2 %76, i64 %79, i1 false)
  %indvars.iv.next128 = add nuw nsw i64 %indvars.iv127, 1
  %80 = load i32, ptr %18, align 4, !tbaa !55
  %81 = sext i32 %80 to i64
  %82 = icmp slt i64 %indvars.iv.next128, %81
  br i1 %82, label %64, label %.preheader101.loopexit, !llvm.loop !120

83:                                               ; preds = %.lr.ph112, %83
  %84 = phi i32 [ %61, %.lr.ph112 ], [ %100, %83 ]
  %.2111 = phi i32 [ 0, %.lr.ph112 ], [ %99, %83 ]
  %85 = load i32, ptr %20, align 4, !tbaa !45
  %86 = sub i32 %.2111, %84
  %87 = add i32 %86, %85
  %88 = sext i32 %87 to i64
  %89 = mul nsw i64 %88, %16
  %90 = getelementptr inbounds i16, ptr %12, i64 %89
  %91 = load i32, ptr %18, align 4, !tbaa !55
  %92 = add nsw i32 %91, %.2111
  %93 = sext i32 %92 to i64
  %94 = mul nsw i64 %93, %16
  %95 = getelementptr inbounds i16, ptr %12, i64 %94
  %96 = load i32, ptr %63, align 4, !tbaa !45
  %97 = shl nsw i32 %96, 1
  %98 = sext i32 %97 to i64
  tail call void @llvm.memcpy.p0.p0.i64(ptr align 2 %90, ptr align 2 %95, i64 %98, i1 false)
  %99 = add nuw nsw i32 %.2111, 1
  %100 = load i32, ptr %22, align 4, !tbaa !56
  %101 = icmp slt i32 %99, %100
  br i1 %101, label %83, label %._crit_edge113, !llvm.loop !121

._crit_edge113:                                   ; preds = %83, %.preheader101
  %indvars.iv.next131 = add nuw nsw i64 %indvars.iv130, 1
  %102 = load i32, ptr %3, align 4, !tbaa !39
  %103 = sext i32 %102 to i64
  %104 = icmp slt i64 %indvars.iv.next131, %103
  br i1 %104, label %10, label %._crit_edge117, !llvm.loop !122

._crit_edge117:                                   ; preds = %._crit_edge113, %2
  ret void
}